(dp0
Vengine
p1
Vpdflatex
p2
sVpackages
p3
c__builtin__
set
p4
((lp5
Vcomment
p6
aVhyperref
p7
aVxcolor
p8
aVamsmath
p9
aVbm
p10
aVxspace
p11
aVaas_macros
p12
aVlscape
p13
aVamsfonts
p14
aVgraphicx
p15
aVtxfonts
p16
aVamssymb
p17
atp18
Rp19
sVfiles_with_guttermarks
p20
g4
((lp21
V/Users/asanna/Documents/HERMERS_SPIE/./main.tex
p22
aV/Users/asanna/Documents/SPIE-Proceedings-Style-template-and-guidelines-for-authors/./main.tex
p23
aV/Users/asanna/Documents/HERMERS_SPIE/main.tex
p24
aS'main.tex'
p25
atp26
Rp27
sVsynctex
p28
I01
s.