(dp0
Vengine
p1
Vpdflatex
p2
sVpackages
p3
c__builtin__
set
p4
((lp5
Vcomment
p6
aVhyperref
p7
aVxcolor
p8
aVamsmath
p9
aVxspace
p10
aVlscape
p11
aVamsfonts
p12
aVgraphicx
p13
aVtxfonts
p14
aVamssymb
p15
atp16
Rp17
sVfiles_with_guttermarks
p18
g4
((lp19
V/Users/asanna/Documents/SPIE-Proceedings-Style-template-and-guidelines-for-authors/./main.tex
p20
aS'main.tex'
p21
atp22
Rp23
sVsynctex
p24
I01
s.